; Function Attrs: mustprogress nounwind uwtable
define hidden void @_ZN4cvc58internal6theory7strings8StrategyD0Ev(ptr noundef nonnull align 8 dereferenceable(96) initializes((0, 8)) %0) unnamed_addr #7 align 2 personality ptr @__gxx_personality_v0 {
  store ptr getelementptr inbounds nuw inrange(-16, 16) (i8, ptr @_ZTVN4cvc58internal6theory7strings8StrategyE, i64 16), ptr %0, align 8, !tbaa !3
  %2 = getelementptr inbounds nuw i8, ptr %0, i64 48
  %3 = getelementptr inbounds nuw i8, ptr %0, i64 64
  %4 = load ptr, ptr %3, align 8, !tbaa !29
  invoke void @_ZNSt8_Rb_treeIN4cvc58internal6theory6Theory6EffortESt4pairIKS4_S5_IjjEESt10_Select1stIS8_ESt4lessIS4_ESaIS8_EE8_M_eraseEPSt13_Rb_tree_nodeIS8_E(ptr noundef nonnull align 8 dereferenceable(48) %2, ptr noundef %4)
          to label %_ZNSt3mapIN4cvc58internal6theory6Theory6EffortESt4pairIjjESt4lessIS4_ESaIS5_IKS4_S6_EEED2Ev.exit.i unwind label %5

5:                                                ; preds = %1
  %6 = landingpad { ptr, i32 }
          catch ptr null
  %7 = extractvalue { ptr, i32 } %6, 0
  tail call void @__clang_call_terminate(ptr %7) #22
  unreachable

_ZNSt3mapIN4cvc58internal6theory6Theory6EffortESt4pairIjjESt4lessIS4_ESaIS5_IKS4_S6_EEED2Ev.exit.i: ; preds = %1
  %8 = getelementptr inbounds nuw i8, ptr %0, i64 24
  %9 = load ptr, ptr %8, align 8, !tbaa !33
  %.not.i.i.i.i = icmp eq ptr %9, null
  br i1 %.not.i.i.i.i, label %_ZN4cvc58internal6theory7strings8StrategyD2Ev.exit, label %10

10:                                               ; preds = %_ZNSt3mapIN4cvc58internal6theory6Theory6EffortESt4pairIjjESt4lessIS4_ESaIS5_IKS4_S6_EEED2Ev.exit.i
  %11 = getelementptr inbounds nuw i8, ptr %0, i64 40
  %12 = load ptr, ptr %11, align 8, !tbaa !34
  %13 = ptrtoint ptr %12 to i64
  %14 = ptrtoint ptr %9 to i64
  %15 = sub i64 %13, %14
  tail call void @_ZdlPvm(ptr noundef nonnull %9, i64 noundef %15) #23
  br label %_ZN4cvc58internal6theory7strings8StrategyD2Ev.exit

_ZN4cvc58internal6theory7strings8StrategyD2Ev.exit: ; preds = %_ZNSt3mapIN4cvc58internal6theory6Theory6EffortESt4pairIjjESt4lessIS4_ESaIS5_IKS4_S6_EEED2Ev.exit.i, %10
  tail call void @_ZdlPvm(ptr noundef nonnull %0, i64 noundef 96) #23
  ret void
}